; ModuleID = 'source-C-CXX/41/310.cpp'
source_filename = "source-C-CXX/41/310.cpp"
target datalayout = "e-m:e-p270:32:32-p271:32:32-p272:64:64-i64:64-f80:128-n8:16:32:64-S128"
target triple = "x86_64-pc-linux-gnu"

%"class.std::ios_base::Init" = type { i8 }
%"class.std::basic_istream" = type { i32 (...)**, i64, %"class.std::basic_ios" }
%"class.std::basic_ios" = type { %"class.std::ios_base", %"class.std::basic_ostream"*, i8, i8, %"class.std::basic_streambuf"*, %"class.std::ctype"*, %"class.std::num_put"*, %"class.std::num_get"* }
%"class.std::ios_base" = type { i32 (...)**, i64, i64, i32, i32, i32, %"struct.std::ios_base::_Callback_list"*, %"struct.std::ios_base::_Words", [8 x %"struct.std::ios_base::_Words"], i32, %"struct.std::ios_base::_Words"*, %"class.std::locale" }
%"struct.std::ios_base::_Callback_list" = type { %"struct.std::ios_base::_Callback_list"*, void (i32, %"class.std::ios_base"*, i32)*, i32, i32 }
%"struct.std::ios_base::_Words" = type { i8*, i64 }
%"class.std::locale" = type { %"class.std::locale::_Impl"* }
%"class.std::locale::_Impl" = type { i32, %"class.std::locale::facet"**, i64, %"class.std::locale::facet"**, i8** }
%"class.std::locale::facet" = type <{ i32 (...)**, i32, [4 x i8] }>
%"class.std::basic_ostream" = type { i32 (...)**, %"class.std::basic_ios" }
%"class.std::basic_streambuf" = type { i32 (...)**, i8*, i8*, i8*, i8*, i8*, i8*, %"class.std::locale" }
%"class.std::ctype" = type <{ %"class.std::locale::facet.base", [4 x i8], %struct.__locale_struct*, i8, [7 x i8], i32*, i32*, i16*, i8, [256 x i8], [256 x i8], i8, [6 x i8] }>
%"class.std::locale::facet.base" = type <{ i32 (...)**, i32 }>
%struct.__locale_struct = type { [13 x %struct.__locale_data*], i16*, i32*, i32*, [13 x i8*] }
%struct.__locale_data = type opaque
%"class.std::num_put" = type { %"class.std::locale::facet.base", [4 x i8] }
%"class.std::num_get" = type { %"class.std::locale::facet.base", [4 x i8] }

@_ZStL8__ioinit = internal global %"class.std::ios_base::Init" zeroinitializer, align 1
@__dso_handle = external hidden global i8
@_ZSt3cin = external global %"class.std::basic_istream", align 8
@_ZSt4cout = external global %"class.std::basic_ostream", align 8
@.str = private unnamed_addr constant [2 x i8] c" \00", align 1
@llvm.global_ctors = appending global [1 x { i32, void ()*, i8* }] [{ i32, void ()*, i8* } { i32 65535, void ()* @_GLOBAL__sub_I_310.cpp, i8* null }]

declare void @_ZNSt8ios_base4InitC1Ev(%"class.std::ios_base::Init"* nonnull align 1 dereferenceable(1)) unnamed_addr #0

; Function Attrs: nounwind
declare void @_ZNSt8ios_base4InitD1Ev(%"class.std::ios_base::Init"* nonnull align 1 dereferenceable(1)) unnamed_addr #1

; Function Attrs: nofree nounwind
declare i32 @__cxa_atexit(void (i8*)*, i8*, i8*) local_unnamed_addr #2

; Function Attrs: mustprogress norecurse sspstrong uwtable
define dso_local i32 @main() local_unnamed_addr #3 {
  %1 = alloca i32, align 4
  %2 = alloca i32, align 4
  %3 = bitcast i32* %1 to i8*
  call void @llvm.lifetime.start.p0i8(i64 4, i8* nonnull %3) #7
  %4 = bitcast i32* %2 to i8*
  call void @llvm.lifetime.start.p0i8(i64 4, i8* nonnull %4) #7
  %5 = call nonnull align 8 dereferenceable(16) %"class.std::basic_istream"* @_ZNSirsERi(%"class.std::basic_istream"* nonnull align 8 dereferenceable(16) @_ZSt3cin, i32* nonnull align 4 dereferenceable(4) %1)
  %6 = load i32, i32* %1, align 4, !tbaa !5
  %7 = zext i32 %6 to i64
  %8 = call i8* @llvm.stacksave()
  %9 = alloca i32, i64 %7, align 16
  %10 = load i32, i32* %1, align 4, !tbaa !5
  %11 = icmp sgt i32 %10, 0
  br i1 %11, label %12, label %20

12:                                               ; preds = %0, %12
  %13 = phi i64 [ %16, %12 ], [ 0, %0 ]
  %14 = getelementptr inbounds i32, i32* %9, i64 %13
  %15 = call nonnull align 8 dereferenceable(16) %"class.std::basic_istream"* @_ZNSirsERi(%"class.std::basic_istream"* nonnull align 8 dereferenceable(16) @_ZSt3cin, i32* nonnull align 4 dereferenceable(4) %14)
  %16 = add nuw nsw i64 %13, 1
  %17 = load i32, i32* %1, align 4, !tbaa !5
  %18 = sext i32 %17 to i64
  %19 = icmp slt i64 %16, %18
  br i1 %19, label %12, label %20, !llvm.loop !9

20:                                               ; preds = %12, %0
  %21 = call nonnull align 8 dereferenceable(16) %"class.std::basic_istream"* @_ZNSirsERi(%"class.std::basic_istream"* nonnull align 8 dereferenceable(16) @_ZSt3cin, i32* nonnull align 4 dereferenceable(4) %2)
  %22 = load i32, i32* %1, align 4, !tbaa !5
  %23 = load i32, i32* %2, align 4
  %24 = icmp sgt i32 %22, 0
  br i1 %24, label %25, label %37

25:                                               ; preds = %20, %138
  %26 = phi i64 [ %140, %138 ], [ 0, %20 ]
  %27 = phi i32 [ %139, %138 ], [ 0, %20 ]
  %28 = getelementptr inbounds i32, i32* %9, i64 %26
  %29 = load i32, i32* %28, align 4, !tbaa !5
  %30 = icmp eq i32 %29, %23
  br i1 %30, label %31, label %138

31:                                               ; preds = %25
  %32 = zext i32 %27 to i64
  %33 = xor i32 %27, -1
  %34 = add i32 %22, %33
  %35 = xor i32 %27, -1
  %36 = add i32 %22, %35
  br label %44

37:                                               ; preds = %138, %20
  %38 = phi i32 [ 0, %20 ], [ %139, %138 ]
  %39 = xor i32 %38, -1
  %40 = add i32 %22, %39
  %41 = icmp sgt i32 %40, 0
  br i1 %41, label %144, label %42

42:                                               ; preds = %37
  %43 = sext i32 %40 to i64
  br label %155

44:                                               ; preds = %31, %128
  %45 = phi i32 [ 0, %31 ], [ %135, %128 ]
  %46 = phi i64 [ %32, %31 ], [ %132, %128 ]
  %47 = sub i32 %36, %45
  %48 = sext i32 %47 to i64
  %49 = sub i64 %48, %26
  %50 = add i64 %49, -8
  %51 = lshr i64 %50, 3
  %52 = add nuw nsw i64 %51, 1
  %53 = sub i32 %34, %45
  %54 = sext i32 %53 to i64
  %55 = sub i64 %54, %26
  %56 = trunc i64 %46 to i32
  %57 = xor i32 %56, -1
  %58 = add i32 %22, %57
  %59 = sext i32 %58 to i64
  %60 = icmp slt i64 %26, %59
  br i1 %60, label %61, label %128

61:                                               ; preds = %44
  %62 = icmp ult i64 %55, 8
  br i1 %62, label %119, label %63

63:                                               ; preds = %61
  %64 = and i64 %55, -8
  %65 = add i64 %26, %64
  %66 = and i64 %52, 1
  %67 = icmp ult i64 %50, 8
  br i1 %67, label %101, label %68

68:                                               ; preds = %63
  %69 = and i64 %52, 4611686018427387902
  br label %70

70:                                               ; preds = %70, %68
  %71 = phi i64 [ 0, %68 ], [ %98, %70 ]
  %72 = phi i64 [ %69, %68 ], [ %99, %70 ]
  %73 = add i64 %26, %71
  %74 = add nuw nsw i64 %73, 1
  %75 = getelementptr inbounds i32, i32* %9, i64 %74
  %76 = bitcast i32* %75 to <4 x i32>*
  %77 = load <4 x i32>, <4 x i32>* %76, align 4, !tbaa !5
  %78 = getelementptr inbounds i32, i32* %75, i64 4
  %79 = bitcast i32* %78 to <4 x i32>*
  %80 = load <4 x i32>, <4 x i32>* %79, align 4, !tbaa !5
  %81 = getelementptr inbounds i32, i32* %9, i64 %73
  %82 = bitcast i32* %81 to <4 x i32>*
  store <4 x i32> %77, <4 x i32>* %82, align 4, !tbaa !5
  %83 = getelementptr inbounds i32, i32* %81, i64 4
  %84 = bitcast i32* %83 to <4 x i32>*
  store <4 x i32> %80, <4 x i32>* %84, align 4, !tbaa !5
  %85 = or i64 %71, 8
  %86 = add i64 %26, %85
  %87 = add nuw nsw i64 %86, 1
  %88 = getelementptr inbounds i32, i32* %9, i64 %87
  %89 = bitcast i32* %88 to <4 x i32>*
  %90 = load <4 x i32>, <4 x i32>* %89, align 4, !tbaa !5
  %91 = getelementptr inbounds i32, i32* %88, i64 4
  %92 = bitcast i32* %91 to <4 x i32>*
  %93 = load <4 x i32>, <4 x i32>* %92, align 4, !tbaa !5
  %94 = getelementptr inbounds i32, i32* %9, i64 %86
  %95 = bitcast i32* %94 to <4 x i32>*
  store <4 x i32> %90, <4 x i32>* %95, align 4, !tbaa !5
  %96 = getelementptr inbounds i32, i32* %94, i64 4
  %97 = bitcast i32* %96 to <4 x i32>*
  store <4 x i32> %93, <4 x i32>* %97, align 4, !tbaa !5
  %98 = add nuw i64 %71, 16
  %99 = add i64 %72, -2
  %100 = icmp eq i64 %99, 0
  br i1 %100, label %101, label %70, !llvm.loop !11

101:                                              ; preds = %70, %63
  %102 = phi i64 [ 0, %63 ], [ %98, %70 ]
  %103 = icmp eq i64 %66, 0
  br i1 %103, label %117, label %104

104:                                              ; preds = %101
  %105 = add i64 %26, %102
  %106 = add nuw nsw i64 %105, 1
  %107 = getelementptr inbounds i32, i32* %9, i64 %106
  %108 = bitcast i32* %107 to <4 x i32>*
  %109 = load <4 x i32>, <4 x i32>* %108, align 4, !tbaa !5
  %110 = getelementptr inbounds i32, i32* %107, i64 4
  %111 = bitcast i32* %110 to <4 x i32>*
  %112 = load <4 x i32>, <4 x i32>* %111, align 4, !tbaa !5
  %113 = getelementptr inbounds i32, i32* %9, i64 %105
  %114 = bitcast i32* %113 to <4 x i32>*
  store <4 x i32> %109, <4 x i32>* %114, align 4, !tbaa !5
  %115 = getelementptr inbounds i32, i32* %113, i64 4
  %116 = bitcast i32* %115 to <4 x i32>*
  store <4 x i32> %112, <4 x i32>* %116, align 4, !tbaa !5
  br label %117

117:                                              ; preds = %101, %104
  %118 = icmp eq i64 %55, %64
  br i1 %118, label %128, label %119

119:                                              ; preds = %61, %117
  %120 = phi i64 [ %26, %61 ], [ %65, %117 ]
  br label %121

121:                                              ; preds = %119, %121
  %122 = phi i64 [ %123, %121 ], [ %120, %119 ]
  %123 = add nuw nsw i64 %122, 1
  %124 = getelementptr inbounds i32, i32* %9, i64 %123
  %125 = load i32, i32* %124, align 4, !tbaa !5
  %126 = getelementptr inbounds i32, i32* %9, i64 %122
  store i32 %125, i32* %126, align 4, !tbaa !5
  %127 = icmp slt i64 %123, %59
  br i1 %127, label %121, label %128, !llvm.loop !13

128:                                              ; preds = %121, %117, %44
  %129 = phi i64 [ %26, %44 ], [ %65, %117 ], [ %123, %121 ]
  %130 = and i64 %129, 4294967295
  %131 = getelementptr inbounds i32, i32* %9, i64 %130
  store i32 0, i32* %131, align 4, !tbaa !5
  %132 = add i64 %46, 1
  %133 = load i32, i32* %28, align 4, !tbaa !5
  %134 = icmp eq i32 %133, %23
  %135 = add i32 %45, 1
  br i1 %134, label %44, label %136, !llvm.loop !15

136:                                              ; preds = %128
  %137 = trunc i64 %132 to i32
  br label %138

138:                                              ; preds = %136, %25
  %139 = phi i32 [ %27, %25 ], [ %137, %136 ]
  %140 = add nuw nsw i64 %26, 1
  %141 = sub nsw i32 %22, %139
  %142 = sext i32 %141 to i64
  %143 = icmp slt i64 %140, %142
  br i1 %143, label %25, label %37, !llvm.loop !16

144:                                              ; preds = %37, %144
  %145 = phi i64 [ %150, %144 ], [ 0, %37 ]
  %146 = getelementptr inbounds i32, i32* %9, i64 %145
  %147 = load i32, i32* %146, align 4, !tbaa !5
  %148 = call nonnull align 8 dereferenceable(8) %"class.std::basic_ostream"* @_ZNSolsEi(%"class.std::basic_ostream"* nonnull align 8 dereferenceable(8) @_ZSt4cout, i32 %147)
  %149 = call nonnull align 8 dereferenceable(8) %"class.std::basic_ostream"* @_ZSt16__ostream_insertIcSt11char_traitsIcEERSt13basic_ostreamIT_T0_ES6_PKS3_l(%"class.std::basic_ostream"* nonnull align 8 dereferenceable(8) %148, i8* nonnull getelementptr inbounds ([2 x i8], [2 x i8]* @.str, i64 0, i64 0), i64 1)
  %150 = add nuw nsw i64 %145, 1
  %151 = load i32, i32* %1, align 4, !tbaa !5
  %152 = add i32 %151, %39
  %153 = sext i32 %152 to i64
  %154 = icmp slt i64 %150, %153
  br i1 %154, label %144, label %155, !llvm.loop !17

155:                                              ; preds = %144, %42
  %156 = phi i64 [ %43, %42 ], [ %153, %144 ]
  %157 = getelementptr inbounds i32, i32* %9, i64 %156
  %158 = load i32, i32* %157, align 4, !tbaa !5
  %159 = call nonnull align 8 dereferenceable(8) %"class.std::basic_ostream"* @_ZNSolsEi(%"class.std::basic_ostream"* nonnull align 8 dereferenceable(8) @_ZSt4cout, i32 %158)
  call void @llvm.stackrestore(i8* %8)
  call void @llvm.lifetime.end.p0i8(i64 4, i8* nonnull %4) #7
  call void @llvm.lifetime.end.p0i8(i64 4, i8* nonnull %3) #7
  ret i32 0
}

; Function Attrs: argmemonly mustprogress nofree nosync nounwind willreturn
declare void @llvm.lifetime.start.p0i8(i64 immarg, i8* nocapture) #4

declare nonnull align 8 dereferenceable(16) %"class.std::basic_istream"* @_ZNSirsERi(%"class.std::basic_istream"* nonnull align 8 dereferenceable(16), i32* nonnull align 4 dereferenceable(4)) local_unnamed_addr #0

; Function Attrs: mustprogress nofree nosync nounwind willreturn
declare i8* @llvm.stacksave() #5

declare nonnull align 8 dereferenceable(8) %"class.std::basic_ostream"* @_ZNSolsEi(%"class.std::basic_ostream"* nonnull align 8 dereferenceable(8), i32) local_unnamed_addr #0

; Function Attrs: mustprogress nofree nosync nounwind willreturn
declare void @llvm.stackrestore(i8*) #5

; Function Attrs: argmemonly mustprogress nofree nosync nounwind willreturn
declare void @llvm.lifetime.end.p0i8(i64 immarg, i8* nocapture) #4

declare nonnull align 8 dereferenceable(8) %"class.std::basic_ostream"* @_ZSt16__ostream_insertIcSt11char_traitsIcEERSt13basic_ostreamIT_T0_ES6_PKS3_l(%"class.std::basic_ostream"* nonnull align 8 dereferenceable(8), i8*, i64) local_unnamed_addr #0

; Function Attrs: sspstrong uwtable
define internal void @_GLOBAL__sub_I_310.cpp() #6 section ".text.startup" {
  tail call void @_ZNSt8ios_base4InitC1Ev(%"class.std::ios_base::Init"* nonnull align 1 dereferenceable(1) @_ZStL8__ioinit)
  %1 = tail call i32 @__cxa_atexit(void (i8*)* bitcast (void (%"class.std::ios_base::Init"*)* @_ZNSt8ios_base4InitD1Ev to void (i8*)*), i8* getelementptr inbounds (%"class.std::ios_base::Init", %"class.std::ios_base::Init"* @_ZStL8__ioinit, i64 0, i32 0), i8* nonnull @__dso_handle) #7
  ret void
}


!llvm.module.flags = !{!0, !1, !2, !3}
!llvm.ident = !{!4}

!0 = !{i32 1, !"wchar_size", i32 4}
!1 = !{i32 7, !"PIC Level", i32 2}
!2 = !{i32 7, !"PIE Level", i32 2}
!3 = !{i32 7, !"uwtable", i32 1}
!4 = !{!"clang version 13.0.0"}
!5 = !{!6, !6, i64 0}
!6 = !{!"int", !7, i64 0}
!7 = !{!"omnipotent char", !8, i64 0}
!8 = !{!"Simple C++ TBAA"}
!9 = distinct !{!9, !10}
!10 = !{!"llvm.loop.mustprogress"}
!11 = distinct !{!11, !10, !12}
!12 = !{!"llvm.loop.isvectorized", i32 1}
!13 = distinct !{!13, !10, !14, !12}
!14 = !{!"llvm.loop.unroll.runtime.disable"}
!15 = distinct !{!15, !10}
!16 = distinct !{!16, !10}
!17 = distinct !{!17, !10}
